; Function Attrs: mustprogress uwtable
define hidden noundef zeroext i1 @_ZNK5osgeo4proj3crs19DerivedProjectedCRS15_isEquivalentToEPKNS0_4util11IComparableENS4_9CriterionERKSt10shared_ptrINS0_2io15DatabaseContextEE(ptr noundef nonnull align 8 dereferenceable(96) %0, ptr noundef %1, i32 noundef %2, ptr noundef nonnull align 8 dereferenceable(16) %3) unnamed_addr #6 align 2 {
  %5 = icmp eq ptr %1, null
  br i1 %5, label %.critedge, label %6

6:                                                ; preds = %4
  %7 = tail call ptr @__dynamic_cast(ptr nonnull %1, ptr nonnull @_ZTIN5osgeo4proj4util11IComparableE, ptr nonnull @_ZTIN5osgeo4proj3crs19DerivedProjectedCRSE, i64 -1) #37
  %8 = icmp eq ptr %7, null
  br i1 %8, label %.critedge, label %9

9:                                                ; preds = %6
  %10 = tail call ptr @__dynamic_cast(ptr nonnull %1, ptr nonnull @_ZTIN5osgeo4proj4util11IComparableE, ptr nonnull @_ZTIN5osgeo4proj3crs10DerivedCRSE, i64 -1) #37
  %11 = icmp eq i32 %2, 2
  %12 = select i1 %11, i32 1, i32 %2
  %13 = icmp eq ptr %10, null
  br i1 %13, label %.critedge, label %14

14:                                               ; preds = %9
  %15 = load ptr, ptr %0, align 8
  %16 = getelementptr i8, ptr %15, i64 -24
  %17 = load i64, ptr %16, align 8
  %18 = getelementptr inbounds i8, ptr %0, i64 %17
  %19 = tail call noundef zeroext i1 @_ZNK5osgeo4proj3crs9SingleCRS18baseIsEquivalentToEPKNS0_4util11IComparableENS4_9CriterionERKSt10shared_ptrINS0_2io15DatabaseContextEE(ptr noundef nonnull align 8 dereferenceable(72) %18, ptr noundef nonnull %1, i32 noundef %12, ptr noundef nonnull align 8 dereferenceable(16) %3)
  br i1 %19, label %20, label %.critedge

20:                                               ; preds = %14
  %21 = getelementptr inbounds i8, ptr %0, i64 8
  %22 = load ptr, ptr %21, align 8
  %23 = load ptr, ptr %22, align 8
  %24 = getelementptr inbounds i8, ptr %10, i64 8
  %25 = load ptr, ptr %24, align 8
  %26 = load ptr, ptr %25, align 8
  %27 = icmp eq ptr %26, null
  %28 = getelementptr inbounds i8, ptr %26, i64 16
  %spec.select.i = select i1 %27, ptr null, ptr %28
  %29 = load ptr, ptr %23, align 8
  %30 = getelementptr inbounds i8, ptr %29, i64 16
  %31 = load ptr, ptr %30, align 8
  %32 = tail call noundef zeroext i1 %31(ptr noundef nonnull align 8 dereferenceable(48) %23, ptr noundef %spec.select.i, i32 noundef %2, ptr noundef nonnull align 8 dereferenceable(16) %3)
  br i1 %32, label %33, label %.critedge

33:                                               ; preds = %20
  %34 = load ptr, ptr %21, align 8
  %35 = getelementptr inbounds i8, ptr %34, i64 16
  %36 = load ptr, ptr %35, align 8
  %37 = load ptr, ptr %24, align 8
  %38 = getelementptr inbounds i8, ptr %37, i64 16
  %39 = load ptr, ptr %38, align 8
  %40 = icmp eq ptr %39, null
  br i1 %40, label %47, label %41

41:                                               ; preds = %33
  %42 = load ptr, ptr %39, align 8
  %43 = getelementptr i8, ptr %42, i64 -24
  %44 = load i64, ptr %43, align 8
  %45 = getelementptr i8, ptr %39, i64 %44
  %46 = getelementptr i8, ptr %45, i64 16
  br label %47

47:                                               ; preds = %41, %33
  %48 = phi ptr [ %46, %41 ], [ null, %33 ]
  %49 = load ptr, ptr %36, align 8
  %50 = getelementptr inbounds i8, ptr %49, i64 24
  %51 = load ptr, ptr %50, align 8
  %52 = tail call noundef zeroext i1 %51(ptr noundef nonnull align 8 dereferenceable(16) %36, ptr noundef %48, i32 noundef %12, ptr noundef nonnull align 8 dereferenceable(16) %3)
  br label %.critedge

.critedge:                                        ; preds = %47, %20, %14, %9, %4, %6
  %53 = phi i1 [ false, %6 ], [ false, %4 ], [ false, %14 ], [ false, %9 ], [ false, %20 ], [ %52, %47 ]
  ret i1 %53
}